
data/binary.elf:     file format elf32-littlearm


Disassembly of section .text:

00008000 <sha256>:
    8000:	e90d 4fd0 	stmdb	sp, {r4, r6, r7, r8, r9, sl, fp, lr}
    8004:	e90d 4fd0 	stmdb	sp, {r4, r6, r7, r8, r9, sl, fp, lr}
    8008:	f1ad 0520 	sub.w	r5, sp, #32
    800c:	f1ad 0520 	sub.w	r5, sp, #32
    8010:	46ad      	mov	sp, r5
    8012:	46ad      	mov	sp, r5
    8014:	460f      	mov	r7, r1
    8016:	460f      	mov	r7, r1
    8018:	f5ad 75b0 	sub.w	r5, sp, #352	; 0x160
    801c:	f5ad 75b0 	sub.w	r5, sp, #352	; 0x160
    8020:	46ad      	mov	sp, r5
    8022:	46ad      	mov	sp, r5
    8024:	f8df 47cc 	ldr.w	r4, [pc, #1996]	; 87f4 <sha256+0x7f4>
    8028:	f8df 47c8 	ldr.w	r4, [pc, #1992]	; 87f4 <sha256+0x7f4>
    802c:	ae10      	add	r6, sp, #64	; 0x40
    802e:	ae10      	add	r6, sp, #64	; 0x40
    8030:	910e      	str	r1, [sp, #56]	; 0x38
    8032:	910e      	str	r1, [sp, #56]	; 0x38
    8034:	900f      	str	r0, [sp, #60]	; 0x3c
    8036:	900f      	str	r0, [sp, #60]	; 0x3c
    8038:	920d      	str	r2, [sp, #52]	; 0x34
    803a:	920d      	str	r2, [sp, #52]	; 0x34
    803c:	e894 000f 	ldmia.w	r4, {r0, r1, r2, r3}
    8040:	e894 000f 	ldmia.w	r4, {r0, r1, r2, r3}
    8044:	f104 0510 	add.w	r5, r4, #16
    8048:	f104 0510 	add.w	r5, r4, #16
    804c:	462c      	mov	r4, r5
    804e:	462c      	mov	r4, r5
    8050:	e886 000f 	stmia.w	r6, {r0, r1, r2, r3}
    8054:	e886 000f 	stmia.w	r6, {r0, r1, r2, r3}
    8058:	f106 0510 	add.w	r5, r6, #16
    805c:	f106 0510 	add.w	r5, r6, #16
    8060:	462e      	mov	r6, r5
    8062:	462e      	mov	r6, r5
    8064:	e894 000f 	ldmia.w	r4, {r0, r1, r2, r3}
    8068:	e894 000f 	ldmia.w	r4, {r0, r1, r2, r3}
    806c:	e886 000f 	stmia.w	r6, {r0, r1, r2, r3}
    8070:	e886 000f 	stmia.w	r6, {r0, r1, r2, r3}
    8074:	2f00      	cmp	r7, #0
    8076:	2f00      	cmp	r7, #0
    8078:	f000 828c 	beq.w	8594 <sha256+0x594>
    807c:	f000 828a 	beq.w	8594 <sha256+0x594>
    8080:	2300      	movs	r3, #0
    8082:	2300      	movs	r3, #0
    8084:	930c      	str	r3, [sp, #48]	; 0x30
    8086:	930c      	str	r3, [sp, #48]	; 0x30
    8088:	9b10      	ldr	r3, [sp, #64]	; 0x40
    808a:	9b10      	ldr	r3, [sp, #64]	; 0x40
    808c:	f10d 0a60 	add.w	sl, sp, #96	; 0x60
    8090:	f10d 0a60 	add.w	sl, sp, #96	; 0x60
    8094:	9306      	str	r3, [sp, #24]
    8096:	9306      	str	r3, [sp, #24]
    8098:	9b11      	ldr	r3, [sp, #68]	; 0x44
    809a:	9b11      	ldr	r3, [sp, #68]	; 0x44
    809c:	9307      	str	r3, [sp, #28]
    809e:	9307      	str	r3, [sp, #28]
    80a0:	9b12      	ldr	r3, [sp, #72]	; 0x48
    80a2:	9b12      	ldr	r3, [sp, #72]	; 0x48
    80a4:	9308      	str	r3, [sp, #32]
    80a6:	9308      	str	r3, [sp, #32]
    80a8:	9b13      	ldr	r3, [sp, #76]	; 0x4c
    80aa:	9b13      	ldr	r3, [sp, #76]	; 0x4c
    80ac:	9309      	str	r3, [sp, #36]	; 0x24
    80ae:	9309      	str	r3, [sp, #36]	; 0x24
    80b0:	9b14      	ldr	r3, [sp, #80]	; 0x50
    80b2:	9b14      	ldr	r3, [sp, #80]	; 0x50
    80b4:	930a      	str	r3, [sp, #40]	; 0x28
    80b6:	930a      	str	r3, [sp, #40]	; 0x28
    80b8:	9b15      	ldr	r3, [sp, #84]	; 0x54
    80ba:	9b15      	ldr	r3, [sp, #84]	; 0x54
    80bc:	930b      	str	r3, [sp, #44]	; 0x2c
    80be:	930b      	str	r3, [sp, #44]	; 0x2c
    80c0:	9b16      	ldr	r3, [sp, #88]	; 0x58
    80c2:	9b16      	ldr	r3, [sp, #88]	; 0x58
    80c4:	9304      	str	r3, [sp, #16]
    80c6:	9304      	str	r3, [sp, #16]
    80c8:	9b17      	ldr	r3, [sp, #92]	; 0x5c
    80ca:	9b17      	ldr	r3, [sp, #92]	; 0x5c
    80cc:	9305      	str	r3, [sp, #20]
    80ce:	9305      	str	r3, [sp, #20]
    80d0:	f104 0310 	add.w	r3, r4, #16
    80d4:	f104 0310 	add.w	r3, r4, #16
    80d8:	9303      	str	r3, [sp, #12]
    80da:	9303      	str	r3, [sp, #12]
    80dc:	9b0f      	ldr	r3, [sp, #60]	; 0x3c
    80de:	9b0f      	ldr	r3, [sp, #60]	; 0x3c
    80e0:	9a0c      	ldr	r2, [sp, #48]	; 0x30
    80e2:	9a0c      	ldr	r2, [sp, #48]	; 0x30
    80e4:	ac17      	add	r4, sp, #92	; 0x5c
    80e6:	ac17      	add	r4, sp, #92	; 0x5c
    80e8:	1898      	adds	r0, r3, r2
    80ea:	1898      	adds	r0, r3, r2
    80ec:	7843      	ldrb	r3, [r0, #1]
    80ee:	7843      	ldrb	r3, [r0, #1]
    80f0:	7802      	ldrb	r2, [r0, #0]
    80f2:	7802      	ldrb	r2, [r0, #0]
    80f4:	78c1      	ldrb	r1, [r0, #3]
    80f6:	78c1      	ldrb	r1, [r0, #3]
    80f8:	041d      	lsls	r5, r3, #16
    80fa:	041d      	lsls	r5, r3, #16
    80fc:	462b      	mov	r3, r5
    80fe:	462b      	mov	r3, r5
    8100:	ea43 6502 	orr.w	r5, r3, r2, lsl #24
    8104:	ea43 6502 	orr.w	r5, r3, r2, lsl #24
    8108:	462b      	mov	r3, r5
    810a:	462b      	mov	r3, r5
    810c:	7882      	ldrb	r2, [r0, #2]
    810e:	7882      	ldrb	r2, [r0, #2]
    8110:	ea53 0501 	orrs.w	r5, r3, r1
    8114:	ea53 0501 	orrs.w	r5, r3, r1
    8118:	462b      	mov	r3, r5
    811a:	462b      	mov	r3, r5
    811c:	ea43 2502 	orr.w	r5, r3, r2, lsl #8
    8120:	ea43 2502 	orr.w	r5, r3, r2, lsl #8
    8124:	462b      	mov	r3, r5
    8126:	462b      	mov	r3, r5
    8128:	6063      	str	r3, [r4, #4]
    812a:	6063      	str	r3, [r4, #4]
    812c:	f104 0504 	add.w	r5, r4, #4
    8130:	f104 0504 	add.w	r5, r4, #4
    8134:	462c      	mov	r4, r5
    8136:	462c      	mov	r4, r5
    8138:	ab27      	add	r3, sp, #156	; 0x9c
    813a:	ab27      	add	r3, sp, #156	; 0x9c
    813c:	42a3      	cmp	r3, r4
    813e:	42a3      	cmp	r3, r4
    8140:	f100 0504 	add.w	r5, r0, #4
    8144:	f100 0504 	add.w	r5, r0, #4
    8148:	4628      	mov	r0, r5
    814a:	4628      	mov	r0, r5
    814c:	d1ce      	bne.n	80ec <sha256+0xec>
    814e:	d1cd      	bne.n	80ec <sha256+0xec>
    8150:	4656      	mov	r6, sl
    8152:	4656      	mov	r6, sl
    8154:	f04f 0e10 	mov.w	lr, #16
    8158:	f04f 0e10 	mov.w	lr, #16
    815c:	f8da 4038 	ldr.w	r4, [sl, #56]	; 0x38
    8160:	f8da 4038 	ldr.w	r4, [sl, #56]	; 0x38
    8164:	f8da 203c 	ldr.w	r2, [sl, #60]	; 0x3c
    8168:	f8da 203c 	ldr.w	r2, [sl, #60]	; 0x3c
    816c:	f8da 7000 	ldr.w	r7, [sl]
    8170:	f8da 7000 	ldr.w	r7, [sl]
    8174:	ea4f 40f4 	mov.w	r0, r4, ror #19
    8178:	ea4f 40f4 	mov.w	r0, r4, ror #19
    817c:	ea80 4574 	eor.w	r5, r0, r4, ror #17
    8180:	ea80 4574 	eor.w	r5, r0, r4, ror #17
    8184:	4628      	mov	r0, r5
    8186:	4628      	mov	r0, r5
    8188:	ea80 2594 	eor.w	r5, r0, r4, lsr #10
    818c:	ea80 2594 	eor.w	r5, r0, r4, lsr #10
    8190:	4628      	mov	r0, r5
    8192:	4628      	mov	r0, r5
    8194:	ea4f 4372 	mov.w	r3, r2, ror #17
    8198:	ea4f 4372 	mov.w	r3, r2, ror #17
    819c:	6874      	ldr	r4, [r6, #4]
    819e:	6874      	ldr	r4, [r6, #4]
    81a0:	6a71      	ldr	r1, [r6, #36]	; 0x24
    81a2:	6a71      	ldr	r1, [r6, #36]	; 0x24
    81a4:	eb00 0507 	add.w	r5, r0, r7
    81a8:	eb00 0507 	add.w	r5, r0, r7
    81ac:	4628      	mov	r0, r5
    81ae:	4628      	mov	r0, r5
    81b0:	ea83 45f2 	eor.w	r5, r3, r2, ror #19
    81b4:	ea83 45f2 	eor.w	r5, r3, r2, ror #19
    81b8:	462b      	mov	r3, r5
    81ba:	462b      	mov	r3, r5
    81bc:	68b7      	ldr	r7, [r6, #8]
    81be:	68b7      	ldr	r7, [r6, #8]
    81c0:	ea83 2592 	eor.w	r5, r3, r2, lsr #10
    81c4:	ea83 2592 	eor.w	r5, r3, r2, lsr #10
    81c8:	462a      	mov	r2, r5
    81ca:	462a      	mov	r2, r5
    81cc:	6ab3      	ldr	r3, [r6, #40]	; 0x28
    81ce:	6ab3      	ldr	r3, [r6, #40]	; 0x28
    81d0:	eb00 0501 	add.w	r5, r0, r1
    81d4:	eb00 0501 	add.w	r5, r0, r1
    81d8:	4628      	mov	r0, r5
    81da:	4628      	mov	r0, r5
    81dc:	ea4f 4cb4 	mov.w	ip, r4, ror #18
    81e0:	ea4f 4cb4 	mov.w	ip, r4, ror #18
    81e4:	ea4f 11f7 	mov.w	r1, r7, ror #7
    81e8:	ea4f 11f7 	mov.w	r1, r7, ror #7
    81ec:	ea8c 15f4 	eor.w	r5, ip, r4, ror #7
    81f0:	ea8c 15f4 	eor.w	r5, ip, r4, ror #7
    81f4:	46ac      	mov	ip, r5
    81f6:	46ac      	mov	ip, r5
    81f8:	eb02 0503 	add.w	r5, r2, r3
    81fc:	eb02 0503 	add.w	r5, r2, r3
    8200:	462a      	mov	r2, r5
    8202:	462a      	mov	r2, r5
    8204:	ea81 45b7 	eor.w	r5, r1, r7, ror #18
    8208:	ea81 45b7 	eor.w	r5, r1, r7, ror #18
    820c:	4629      	mov	r1, r5
    820e:	4629      	mov	r1, r5
    8210:	1913      	adds	r3, r2, r4
    8212:	1913      	adds	r3, r2, r4
    8214:	ea8c 05d4 	eor.w	r5, ip, r4, lsr #3
    8218:	ea8c 05d4 	eor.w	r5, ip, r4, lsr #3
    821c:	46ac      	mov	ip, r5
    821e:	46ac      	mov	ip, r5
    8220:	ea81 02d7 	eor.w	r2, r1, r7, lsr #3
    8224:	ea81 02d7 	eor.w	r2, r1, r7, lsr #3
    8228:	f10e 0502 	add.w	r5, lr, #2
    822c:	f10e 0502 	add.w	r5, lr, #2
    8230:	46ae      	mov	lr, r5
    8232:	46ae      	mov	lr, r5
    8234:	eb00 040c 	add.w	r4, r0, ip
    8238:	eb00 040c 	add.w	r4, r0, ip
    823c:	eb02 0503 	add.w	r5, r2, r3
    8240:	eb02 0503 	add.w	r5, r2, r3
    8244:	462a      	mov	r2, r5
    8246:	462a      	mov	r2, r5
    8248:	f1be 0f3e 	cmp.w	lr, #62	; 0x3e
    824c:	f1be 0f3e 	cmp.w	lr, #62	; 0x3e
    8250:	6434      	str	r4, [r6, #64]	; 0x40
    8252:	6434      	str	r4, [r6, #64]	; 0x40
    8254:	6472      	str	r2, [r6, #68]	; 0x44
    8256:	6472      	str	r2, [r6, #68]	; 0x44
    8258:	f106 0508 	add.w	r5, r6, #8
    825c:	f106 0508 	add.w	r5, r6, #8
    8260:	462e      	mov	r6, r5
    8262:	462e      	mov	r6, r5
    8264:	d186      	bne.n	8174 <sha256+0x174>
    8266:	d185      	bne.n	8174 <sha256+0x174>
    8268:	af55      	add	r7, sp, #340	; 0x154
    826a:	af55      	add	r7, sp, #340	; 0x154
    826c:	ae46      	add	r6, sp, #280	; 0x118
    826e:	ae46      	add	r6, sp, #280	; 0x118
    8270:	4634      	mov	r4, r6
    8272:	4634      	mov	r4, r6
    8274:	6bb2      	ldr	r2, [r6, #56]	; 0x38
    8276:	6bb2      	ldr	r2, [r6, #56]	; 0x38
    8278:	6871      	ldr	r1, [r6, #4]
    827a:	6871      	ldr	r1, [r6, #4]
    827c:	f106 0504 	add.w	r5, r6, #4
    8280:	f106 0504 	add.w	r5, r6, #4
    8284:	462e      	mov	r6, r5
    8286:	462e      	mov	r6, r5
    8288:	ea4f 4372 	mov.w	r3, r2, ror #17
    828c:	ea4f 4372 	mov.w	r3, r2, ror #17
    8290:	6820      	ldr	r0, [r4, #0]
    8292:	6820      	ldr	r0, [r4, #0]
    8294:	ea83 45f2 	eor.w	r5, r3, r2, ror #19
    8298:	ea83 45f2 	eor.w	r5, r3, r2, ror #19
    829c:	462b      	mov	r3, r5
    829e:	462b      	mov	r3, r5
    82a0:	6a65      	ldr	r5, [r4, #36]	; 0x24
    82a2:	6a65      	ldr	r5, [r4, #36]	; 0x24
    82a4:	462c      	mov	r4, r5
    82a6:	462c      	mov	r4, r5
    82a8:	ea83 2592 	eor.w	r5, r3, r2, lsr #10
    82ac:	ea83 2592 	eor.w	r5, r3, r2, lsr #10
    82b0:	462b      	mov	r3, r5
    82b2:	462b      	mov	r3, r5
    82b4:	ea4f 12f1 	mov.w	r2, r1, ror #7
    82b8:	ea4f 12f1 	mov.w	r2, r1, ror #7
    82bc:	eb00 0504 	add.w	r5, r0, r4
    82c0:	eb00 0504 	add.w	r5, r0, r4
    82c4:	4628      	mov	r0, r5
    82c6:	4628      	mov	r0, r5
    82c8:	ea82 45b1 	eor.w	r5, r2, r1, ror #18
    82cc:	ea82 45b1 	eor.w	r5, r2, r1, ror #18
    82d0:	462a      	mov	r2, r5
    82d2:	462a      	mov	r2, r5
    82d4:	eb03 0500 	add.w	r5, r3, r0
    82d8:	eb03 0500 	add.w	r5, r3, r0
    82dc:	462b      	mov	r3, r5
    82de:	462b      	mov	r3, r5
    82e0:	ea82 05d1 	eor.w	r5, r2, r1, lsr #3
    82e4:	ea82 05d1 	eor.w	r5, r2, r1, lsr #3
    82e8:	462a      	mov	r2, r5
    82ea:	462a      	mov	r2, r5
    82ec:	eb03 0502 	add.w	r5, r3, r2
    82f0:	eb03 0502 	add.w	r5, r3, r2
    82f4:	462b      	mov	r3, r5
    82f6:	462b      	mov	r3, r5
    82f8:	607b      	str	r3, [r7, #4]
    82fa:	607b      	str	r3, [r7, #4]
    82fc:	f107 0504 	add.w	r5, r7, #4
    8300:	f107 0504 	add.w	r5, r7, #4
    8304:	462f      	mov	r7, r5
    8306:	462f      	mov	r7, r5
    8308:	ab57      	add	r3, sp, #348	; 0x15c
    830a:	ab57      	add	r3, sp, #348	; 0x15c
    830c:	429f      	cmp	r7, r3
    830e:	429f      	cmp	r7, r3
    8310:	d1ae      	bne.n	8270 <sha256+0x270>
    8312:	d1ad      	bne.n	8270 <sha256+0x270>
    8314:	9b05      	ldr	r3, [sp, #20]
    8316:	9b05      	ldr	r3, [sp, #20]
    8318:	aa09      	add	r2, sp, #36	; 0x24
    831a:	aa09      	add	r2, sp, #36	; 0x24
    831c:	ae06      	add	r6, sp, #24
    831e:	ae06      	add	r6, sp, #24
    8320:	4615      	mov	r5, r2
    8322:	4615      	mov	r5, r2
    8324:	e895 0214 	ldmia.w	r5, {r2, r4, r9}
    8328:	e895 0214 	ldmia.w	r5, {r2, r4, r9}
    832c:	f8dd 8010 	ldr.w	r8, [sp, #16]
    8330:	f8dd 8010 	ldr.w	r8, [sp, #16]
    8334:	9201      	str	r2, [sp, #4]
    8336:	9201      	str	r2, [sp, #4]
    8338:	4635      	mov	r5, r6
    833a:	4635      	mov	r5, r6
    833c:	e895 5040 	ldmia.w	r5, {r6, ip, lr}
    8340:	e895 5040 	ldmia.w	r5, {r6, ip, lr}
    8344:	2700      	movs	r7, #0
    8346:	2700      	movs	r7, #0
    8348:	9302      	str	r3, [sp, #8]
    834a:	9302      	str	r3, [sp, #8]
    834c:	e00c      	b.n	8368 <sha256+0x368>
    834e:	e00b      	b.n	8368 <sha256+0x368>
    8350:	46c8      	mov	r8, r9
    8352:	46c8      	mov	r8, r9
    8354:	46e6      	mov	lr, ip
    8356:	46e6      	mov	lr, ip
    8358:	46a1      	mov	r9, r4
    835a:	46a1      	mov	r9, r4
    835c:	46b4      	mov	ip, r6
    835e:	46b4      	mov	ip, r6
    8360:	4604      	mov	r4, r0
    8362:	4604      	mov	r4, r0
    8364:	460e      	mov	r6, r1
    8366:	460e      	mov	r6, r1
    8368:	ea4f 21f4 	mov.w	r1, r4, ror #11
    836c:	ea4f 21f4 	mov.w	r1, r4, ror #11
    8370:	ea28 0004 	bic.w	r0, r8, r4
    8374:	ea28 0004 	bic.w	r0, r8, r4
    8378:	9b03      	ldr	r3, [sp, #12]
    837a:	9b03      	ldr	r3, [sp, #12]
    837c:	ea81 15b4 	eor.w	r5, r1, r4, ror #6
    8380:	ea81 15b4 	eor.w	r5, r1, r4, ror #6
    8384:	4629      	mov	r1, r5
    8386:	4629      	mov	r1, r5
    8388:	ea09 0204 	and.w	r2, r9, r4
    838c:	ea09 0204 	and.w	r2, r9, r4
    8390:	ea81 6574 	eor.w	r5, r1, r4, ror #25
    8394:	ea81 6574 	eor.w	r5, r1, r4, ror #25
    8398:	4629      	mov	r1, r5
    839a:	4629      	mov	r1, r5
    839c:	ea92 0500 	eors.w	r5, r2, r0
    83a0:	ea92 0500 	eors.w	r5, r2, r0
    83a4:	462a      	mov	r2, r5
    83a6:	462a      	mov	r2, r5
    83a8:	eb02 0501 	add.w	r5, r2, r1
    83ac:	eb02 0501 	add.w	r5, r2, r1
    83b0:	462a      	mov	r2, r5
    83b2:	462a      	mov	r2, r5
    83b4:	f853 1027 	ldr.w	r1, [r3, r7, lsl #2]
    83b8:	f853 1027 	ldr.w	r1, [r3, r7, lsl #2]
    83bc:	f85a 0027 	ldr.w	r0, [sl, r7, lsl #2]
    83c0:	f85a 0027 	ldr.w	r0, [sl, r7, lsl #2]
    83c4:	460b      	mov	r3, r1
    83c6:	460b      	mov	r3, r1
    83c8:	eb02 0500 	add.w	r5, r2, r0
    83cc:	eb02 0500 	add.w	r5, r2, r0
    83d0:	462a      	mov	r2, r5
    83d2:	462a      	mov	r2, r5
    83d4:	eb02 0503 	add.w	r5, r2, r3
    83d8:	eb02 0503 	add.w	r5, r2, r3
    83dc:	462a      	mov	r2, r5
    83de:	462a      	mov	r2, r5
    83e0:	9b02      	ldr	r3, [sp, #8]
    83e2:	9b02      	ldr	r3, [sp, #8]
    83e4:	ea4f 3176 	mov.w	r1, r6, ror #13
    83e8:	ea4f 3176 	mov.w	r1, r6, ror #13
    83ec:	ea8c 000e 	eor.w	r0, ip, lr
    83f0:	ea8c 000e 	eor.w	r0, ip, lr
    83f4:	eb02 0503 	add.w	r5, r2, r3
    83f8:	eb02 0503 	add.w	r5, r2, r3
    83fc:	462a      	mov	r2, r5
    83fe:	462a      	mov	r2, r5
    8400:	ea10 0506 	ands.w	r5, r0, r6
    8404:	ea10 0506 	ands.w	r5, r0, r6
    8408:	4628      	mov	r0, r5
    840a:	4628      	mov	r0, r5
    840c:	9b01      	ldr	r3, [sp, #4]
    840e:	9b01      	ldr	r3, [sp, #4]
    8410:	ea81 05b6 	eor.w	r5, r1, r6, ror #2
    8414:	ea81 05b6 	eor.w	r5, r1, r6, ror #2
    8418:	4629      	mov	r1, r5
    841a:	4629      	mov	r1, r5
    841c:	ea0c 0b0e 	and.w	fp, ip, lr
    8420:	ea0c 0b0e 	and.w	fp, ip, lr
    8424:	ea80 050b 	eor.w	r5, r0, fp
    8428:	ea80 050b 	eor.w	r5, r0, fp
    842c:	46ab      	mov	fp, r5
    842e:	46ab      	mov	fp, r5
    8430:	ea81 55b6 	eor.w	r5, r1, r6, ror #22
    8434:	ea81 55b6 	eor.w	r5, r1, r6, ror #22
    8438:	4629      	mov	r1, r5
    843a:	4629      	mov	r1, r5
    843c:	1c7d      	adds	r5, r7, #1
    843e:	1c7d      	adds	r5, r7, #1
    8440:	462f      	mov	r7, r5
    8442:	462f      	mov	r7, r5
    8444:	eb01 050b 	add.w	r5, r1, fp
    8448:	eb01 050b 	add.w	r5, r1, fp
    844c:	4629      	mov	r1, r5
    844e:	4629      	mov	r1, r5
    8450:	eb03 0502 	add.w	r5, r3, r2
    8454:	eb03 0502 	add.w	r5, r3, r2
    8458:	462b      	mov	r3, r5
    845a:	462b      	mov	r3, r5
    845c:	2f40      	cmp	r7, #64	; 0x40
    845e:	2f40      	cmp	r7, #64	; 0x40
    8460:	4618      	mov	r0, r3
    8462:	4618      	mov	r0, r3
    8464:	eb01 0502 	add.w	r5, r1, r2
    8468:	eb01 0502 	add.w	r5, r1, r2
    846c:	4629      	mov	r1, r5
    846e:	4629      	mov	r1, r5
    8470:	f8cd e004 	str.w	lr, [sp, #4]
    8474:	f8cd e004 	str.w	lr, [sp, #4]
    8478:	f8cd 8008 	str.w	r8, [sp, #8]
    847c:	f8cd 8008 	str.w	r8, [sp, #8]
    8480:	f47f af66 	bne.w	8350 <sha256+0x350>
    8484:	f47f af64 	bne.w	8350 <sha256+0x350>
    8488:	460a      	mov	r2, r1
    848a:	460a      	mov	r2, r1
    848c:	4619      	mov	r1, r3
    848e:	4619      	mov	r1, r3
    8490:	9b06      	ldr	r3, [sp, #24]
    8492:	9b06      	ldr	r3, [sp, #24]
    8494:	eb03 0502 	add.w	r5, r3, r2
    8498:	eb03 0502 	add.w	r5, r3, r2
    849c:	462b      	mov	r3, r5
    849e:	462b      	mov	r3, r5
    84a0:	461a      	mov	r2, r3
    84a2:	461a      	mov	r2, r3
    84a4:	9306      	str	r3, [sp, #24]
    84a6:	9306      	str	r3, [sp, #24]
    84a8:	9b07      	ldr	r3, [sp, #28]
    84aa:	9b07      	ldr	r3, [sp, #28]
    84ac:	9210      	str	r2, [sp, #64]	; 0x40
    84ae:	9210      	str	r2, [sp, #64]	; 0x40
    84b0:	eb03 0506 	add.w	r5, r3, r6
    84b4:	eb03 0506 	add.w	r5, r3, r6
    84b8:	462b      	mov	r3, r5
    84ba:	462b      	mov	r3, r5
    84bc:	4618      	mov	r0, r3
    84be:	4618      	mov	r0, r3
    84c0:	9307      	str	r3, [sp, #28]
    84c2:	9307      	str	r3, [sp, #28]
    84c4:	9b08      	ldr	r3, [sp, #32]
    84c6:	9b08      	ldr	r3, [sp, #32]
    84c8:	9011      	str	r0, [sp, #68]	; 0x44
    84ca:	9011      	str	r0, [sp, #68]	; 0x44
    84cc:	eb03 050c 	add.w	r5, r3, ip
    84d0:	eb03 050c 	add.w	r5, r3, ip
    84d4:	462b      	mov	r3, r5
    84d6:	462b      	mov	r3, r5
    84d8:	461e      	mov	r6, r3
    84da:	461e      	mov	r6, r3
    84dc:	9308      	str	r3, [sp, #32]
    84de:	9308      	str	r3, [sp, #32]
    84e0:	9b09      	ldr	r3, [sp, #36]	; 0x24
    84e2:	9b09      	ldr	r3, [sp, #36]	; 0x24
    84e4:	9612      	str	r6, [sp, #72]	; 0x48
    84e6:	9612      	str	r6, [sp, #72]	; 0x48
    84e8:	eb03 050e 	add.w	r5, r3, lr
    84ec:	eb03 050e 	add.w	r5, r3, lr
    84f0:	462b      	mov	r3, r5
    84f2:	462b      	mov	r3, r5
    84f4:	461f      	mov	r7, r3
    84f6:	461f      	mov	r7, r3
    84f8:	9309      	str	r3, [sp, #36]	; 0x24
    84fa:	9309      	str	r3, [sp, #36]	; 0x24
    84fc:	9b0a      	ldr	r3, [sp, #40]	; 0x28
    84fe:	9b0a      	ldr	r3, [sp, #40]	; 0x28
    8500:	9713      	str	r7, [sp, #76]	; 0x4c
    8502:	9713      	str	r7, [sp, #76]	; 0x4c
    8504:	eb03 0501 	add.w	r5, r3, r1
    8508:	eb03 0501 	add.w	r5, r3, r1
    850c:	462b      	mov	r3, r5
    850e:	462b      	mov	r3, r5
    8510:	4619      	mov	r1, r3
    8512:	4619      	mov	r1, r3
    8514:	930a      	str	r3, [sp, #40]	; 0x28
    8516:	930a      	str	r3, [sp, #40]	; 0x28
    8518:	9b0b      	ldr	r3, [sp, #44]	; 0x2c
    851a:	9b0b      	ldr	r3, [sp, #44]	; 0x2c
    851c:	9114      	str	r1, [sp, #80]	; 0x50
    851e:	9114      	str	r1, [sp, #80]	; 0x50
    8520:	eb03 0504 	add.w	r5, r3, r4
    8524:	eb03 0504 	add.w	r5, r3, r4
    8528:	462b      	mov	r3, r5
    852a:	462b      	mov	r3, r5
    852c:	461c      	mov	r4, r3
    852e:	461c      	mov	r4, r3
    8530:	930b      	str	r3, [sp, #44]	; 0x2c
    8532:	930b      	str	r3, [sp, #44]	; 0x2c
    8534:	9b04      	ldr	r3, [sp, #16]
    8536:	9b04      	ldr	r3, [sp, #16]
    8538:	9415      	str	r4, [sp, #84]	; 0x54
    853a:	9415      	str	r4, [sp, #84]	; 0x54
    853c:	eb03 0509 	add.w	r5, r3, r9
    8540:	eb03 0509 	add.w	r5, r3, r9
    8544:	462b      	mov	r3, r5
    8546:	462b      	mov	r3, r5
    8548:	9304      	str	r3, [sp, #16]
    854a:	9304      	str	r3, [sp, #16]
    854c:	9b05      	ldr	r3, [sp, #20]
    854e:	9b05      	ldr	r3, [sp, #20]
    8550:	9a04      	ldr	r2, [sp, #16]
    8552:	9a04      	ldr	r2, [sp, #16]
    8554:	eb03 0508 	add.w	r5, r3, r8
    8558:	eb03 0508 	add.w	r5, r3, r8
    855c:	462b      	mov	r3, r5
    855e:	462b      	mov	r3, r5
    8560:	9305      	str	r3, [sp, #20]
    8562:	9305      	str	r3, [sp, #20]
    8564:	9216      	str	r2, [sp, #88]	; 0x58
    8566:	9216      	str	r2, [sp, #88]	; 0x58
    8568:	9a05      	ldr	r2, [sp, #20]
    856a:	9a05      	ldr	r2, [sp, #20]
    856c:	9b0c      	ldr	r3, [sp, #48]	; 0x30
    856e:	9b0c      	ldr	r3, [sp, #48]	; 0x30
    8570:	9217      	str	r2, [sp, #92]	; 0x5c
    8572:	9217      	str	r2, [sp, #92]	; 0x5c
    8574:	9a0e      	ldr	r2, [sp, #56]	; 0x38
    8576:	9a0e      	ldr	r2, [sp, #56]	; 0x38
    8578:	f113 0540 	adds.w	r5, r3, #64	; 0x40
    857c:	f113 0540 	adds.w	r5, r3, #64	; 0x40
    8580:	462b      	mov	r3, r5
    8582:	462b      	mov	r3, r5
    8584:	429a      	cmp	r2, r3
    8586:	429a      	cmp	r2, r3
    8588:	930c      	str	r3, [sp, #48]	; 0x30
    858a:	930c      	str	r3, [sp, #48]	; 0x30
    858c:	f63f ada6 	bhi.w	80dc <sha256+0xdc>
    8590:	f63f ada4 	bhi.w	80dc <sha256+0xdc>
    8594:	f04f 0e00 	mov.w	lr, #0
    8598:	f04f 0e00 	mov.w	lr, #0
    859c:	4677      	mov	r7, lr
    859e:	4677      	mov	r7, lr
    85a0:	4676      	mov	r6, lr
    85a2:	4676      	mov	r6, lr
    85a4:	463c      	mov	r4, r7
    85a6:	463c      	mov	r4, r7
    85a8:	4638      	mov	r0, r7
    85aa:	4638      	mov	r0, r7
    85ac:	4639      	mov	r1, r7
    85ae:	4639      	mov	r1, r7
    85b0:	463a      	mov	r2, r7
    85b2:	463a      	mov	r2, r7
    85b4:	46ba      	mov	sl, r7
    85b6:	46ba      	mov	sl, r7
    85b8:	f8dd c040 	ldr.w	ip, [sp, #64]	; 0x40
    85bc:	f8dd c040 	ldr.w	ip, [sp, #64]	; 0x40
    85c0:	9b0d      	ldr	r3, [sp, #52]	; 0x34
    85c2:	9b0d      	ldr	r3, [sp, #52]	; 0x34
    85c4:	ea4f 681c 	mov.w	r8, ip, lsr #24
    85c8:	ea4f 681c 	mov.w	r8, ip, lsr #24
    85cc:	f368 0e07 	bfi	lr, r8, #0, #8
    85d0:	f368 0e07 	bfi	lr, r8, #0, #8
    85d4:	ea4f 481c 	mov.w	r8, ip, lsr #16
    85d8:	ea4f 481c 	mov.w	r8, ip, lsr #16
    85dc:	f368 2e0f 	bfi	lr, r8, #8, #8
    85e0:	f368 2e0f 	bfi	lr, r8, #8, #8
    85e4:	ea4f 281c 	mov.w	r8, ip, lsr #8
    85e8:	ea4f 281c 	mov.w	r8, ip, lsr #8
    85ec:	f368 4e17 	bfi	lr, r8, #16, #8
    85f0:	f368 4e17 	bfi	lr, r8, #16, #8
    85f4:	f8dd 8044 	ldr.w	r8, [sp, #68]	; 0x44
    85f8:	f8dd 8044 	ldr.w	r8, [sp, #68]	; 0x44
    85fc:	f36c 6e1f 	bfi	lr, ip, #24, #8
    8600:	f36c 6e1f 	bfi	lr, ip, #24, #8
    8604:	f8c3 e000 	str.w	lr, [r3]
    8608:	f8c3 e000 	str.w	lr, [r3]
    860c:	ea4f 6e18 	mov.w	lr, r8, lsr #24
    8610:	ea4f 6e18 	mov.w	lr, r8, lsr #24
    8614:	f36e 0707 	bfi	r7, lr, #0, #8
    8618:	f36e 0707 	bfi	r7, lr, #0, #8
    861c:	ea4f 4e18 	mov.w	lr, r8, lsr #16
    8620:	ea4f 4e18 	mov.w	lr, r8, lsr #16
    8624:	f36e 270f 	bfi	r7, lr, #8, #8
    8628:	f36e 270f 	bfi	r7, lr, #8, #8
    862c:	ea4f 2e18 	mov.w	lr, r8, lsr #8
    8630:	ea4f 2e18 	mov.w	lr, r8, lsr #8
    8634:	f8dd c048 	ldr.w	ip, [sp, #72]	; 0x48
    8638:	f8dd c048 	ldr.w	ip, [sp, #72]	; 0x48
    863c:	f36e 4717 	bfi	r7, lr, #16, #8
    8640:	f36e 4717 	bfi	r7, lr, #16, #8
    8644:	f368 671f 	bfi	r7, r8, #24, #8
    8648:	f368 671f 	bfi	r7, r8, #24, #8
    864c:	605f      	str	r7, [r3, #4]
    864e:	605f      	str	r7, [r3, #4]
    8650:	ea4f 671c 	mov.w	r7, ip, lsr #24
    8654:	ea4f 671c 	mov.w	r7, ip, lsr #24
    8658:	f367 0607 	bfi	r6, r7, #0, #8
    865c:	f367 0607 	bfi	r6, r7, #0, #8
    8660:	ea4f 471c 	mov.w	r7, ip, lsr #16
    8664:	ea4f 471c 	mov.w	r7, ip, lsr #16
    8668:	f367 260f 	bfi	r6, r7, #8, #8
    866c:	f367 260f 	bfi	r6, r7, #8, #8
    8670:	ea4f 271c 	mov.w	r7, ip, lsr #8
    8674:	ea4f 271c 	mov.w	r7, ip, lsr #8
    8678:	f8dd 904c 	ldr.w	r9, [sp, #76]	; 0x4c
    867c:	f8dd 904c 	ldr.w	r9, [sp, #76]	; 0x4c
    8680:	f367 4617 	bfi	r6, r7, #16, #8
    8684:	f367 4617 	bfi	r6, r7, #16, #8
    8688:	f36c 661f 	bfi	r6, ip, #24, #8
    868c:	f36c 661f 	bfi	r6, ip, #24, #8
    8690:	609e      	str	r6, [r3, #8]
    8692:	609e      	str	r6, [r3, #8]
    8694:	ea4f 6619 	mov.w	r6, r9, lsr #24
    8698:	ea4f 6619 	mov.w	r6, r9, lsr #24
    869c:	f366 0407 	bfi	r4, r6, #0, #8
    86a0:	f366 0407 	bfi	r4, r6, #0, #8
    86a4:	ea4f 4619 	mov.w	r6, r9, lsr #16
    86a8:	ea4f 4619 	mov.w	r6, r9, lsr #16
    86ac:	f366 240f 	bfi	r4, r6, #8, #8
    86b0:	f366 240f 	bfi	r4, r6, #8, #8
    86b4:	ea4f 2619 	mov.w	r6, r9, lsr #8
    86b8:	ea4f 2619 	mov.w	r6, r9, lsr #8
    86bc:	f8dd 8050 	ldr.w	r8, [sp, #80]	; 0x50
    86c0:	f8dd 8050 	ldr.w	r8, [sp, #80]	; 0x50
    86c4:	f366 4417 	bfi	r4, r6, #16, #8
    86c8:	f366 4417 	bfi	r4, r6, #16, #8
    86cc:	f369 641f 	bfi	r4, r9, #24, #8
    86d0:	f369 641f 	bfi	r4, r9, #24, #8
    86d4:	60dc      	str	r4, [r3, #12]
    86d6:	60dc      	str	r4, [r3, #12]
    86d8:	ea4f 6418 	mov.w	r4, r8, lsr #24
    86dc:	ea4f 6418 	mov.w	r4, r8, lsr #24
    86e0:	f8dd c054 	ldr.w	ip, [sp, #84]	; 0x54
    86e4:	f8dd c054 	ldr.w	ip, [sp, #84]	; 0x54
    86e8:	f364 0007 	bfi	r0, r4, #0, #8
    86ec:	f364 0007 	bfi	r0, r4, #0, #8
    86f0:	ea4f 4418 	mov.w	r4, r8, lsr #16
    86f4:	ea4f 4418 	mov.w	r4, r8, lsr #16
    86f8:	f8dd e058 	ldr.w	lr, [sp, #88]	; 0x58
    86fc:	f8dd e058 	ldr.w	lr, [sp, #88]	; 0x58
    8700:	f364 200f 	bfi	r0, r4, #8, #8
    8704:	f364 200f 	bfi	r0, r4, #8, #8
    8708:	ea4f 2418 	mov.w	r4, r8, lsr #8
    870c:	ea4f 2418 	mov.w	r4, r8, lsr #8
    8710:	9f17      	ldr	r7, [sp, #92]	; 0x5c
    8712:	9f17      	ldr	r7, [sp, #92]	; 0x5c
    8714:	f364 4017 	bfi	r0, r4, #16, #8
    8718:	f364 4017 	bfi	r0, r4, #16, #8
    871c:	ea4f 641c 	mov.w	r4, ip, lsr #24
    8720:	ea4f 641c 	mov.w	r4, ip, lsr #24
    8724:	f364 0107 	bfi	r1, r4, #0, #8
    8728:	f364 0107 	bfi	r1, r4, #0, #8
    872c:	ea4f 641e 	mov.w	r4, lr, lsr #24
    8730:	ea4f 641e 	mov.w	r4, lr, lsr #24
    8734:	f364 0207 	bfi	r2, r4, #0, #8
    8738:	f364 0207 	bfi	r2, r4, #0, #8
    873c:	0e3c      	lsrs	r4, r7, #24
    873e:	0e3c      	lsrs	r4, r7, #24
    8740:	f368 601f 	bfi	r0, r8, #24, #8
    8744:	f368 601f 	bfi	r0, r8, #24, #8
    8748:	f364 0a07 	bfi	sl, r4, #0, #8
    874c:	f364 0a07 	bfi	sl, r4, #0, #8
    8750:	ea4f 441c 	mov.w	r4, ip, lsr #16
    8754:	ea4f 441c 	mov.w	r4, ip, lsr #16
    8758:	f364 210f 	bfi	r1, r4, #8, #8
    875c:	f364 210f 	bfi	r1, r4, #8, #8
    8760:	6118      	str	r0, [r3, #16]
    8762:	6118      	str	r0, [r3, #16]
    8764:	ea4f 441e 	mov.w	r4, lr, lsr #16
    8768:	ea4f 441e 	mov.w	r4, lr, lsr #16
    876c:	ea4f 201c 	mov.w	r0, ip, lsr #8
    8770:	ea4f 201c 	mov.w	r0, ip, lsr #8
    8774:	f364 220f 	bfi	r2, r4, #8, #8
    8778:	f364 220f 	bfi	r2, r4, #8, #8
    877c:	f360 4117 	bfi	r1, r0, #16, #8
    8780:	f360 4117 	bfi	r1, r0, #16, #8
    8784:	0c3c      	lsrs	r4, r7, #16
    8786:	0c3c      	lsrs	r4, r7, #16
    8788:	ea4f 201e 	mov.w	r0, lr, lsr #8
    878c:	ea4f 201e 	mov.w	r0, lr, lsr #8
    8790:	f364 2a0f 	bfi	sl, r4, #8, #8
    8794:	f364 2a0f 	bfi	sl, r4, #8, #8
    8798:	f360 4217 	bfi	r2, r0, #16, #8
    879c:	f360 4217 	bfi	r2, r0, #16, #8
    87a0:	0a38      	lsrs	r0, r7, #8
    87a2:	0a38      	lsrs	r0, r7, #8
    87a4:	f360 4a17 	bfi	sl, r0, #16, #8
    87a8:	f360 4a17 	bfi	sl, r0, #16, #8
    87ac:	f36c 611f 	bfi	r1, ip, #24, #8
    87b0:	f36c 611f 	bfi	r1, ip, #24, #8
    87b4:	f36e 621f 	bfi	r2, lr, #24, #8
    87b8:	f36e 621f 	bfi	r2, lr, #24, #8
    87bc:	f367 6a1f 	bfi	sl, r7, #24, #8
    87c0:	f367 6a1f 	bfi	sl, r7, #24, #8
    87c4:	6159      	str	r1, [r3, #20]
    87c6:	6159      	str	r1, [r3, #20]
    87c8:	619a      	str	r2, [r3, #24]
    87ca:	619a      	str	r2, [r3, #24]
    87cc:	f8c3 a01c 	str.w	sl, [r3, #28]
    87d0:	f8c3 a01c 	str.w	sl, [r3, #28]
    87d4:	ad58      	add	r5, sp, #352	; 0x160
    87d6:	ad58      	add	r5, sp, #352	; 0x160
    87d8:	46ad      	mov	sp, r5
    87da:	46ad      	mov	sp, r5
    87dc:	ad08      	add	r5, sp, #32
    87de:	ad08      	add	r5, sp, #32
    87e0:	46ad      	mov	sp, r5
    87e2:	46ad      	mov	sp, r5
    87e4:	f1ad 0520 	sub.w	r5, sp, #32
    87e8:	f1ad 0520 	sub.w	r5, sp, #32
    87ec:	e895 8fd0 	ldmia.w	r5, {r4, r6, r7, r8, r9, sl, fp, pc}
    87f0:	e895 8fd0 	ldmia.w	r5, {r4, r6, r7, r8, r9, sl, fp, pc}
    87f4:	000088e0 	.word	0x000088e0

000087f8 <report_error>:
    87f8:	e7fe      	b.n	87f8 <report_error>
    87fa:	e7fd      	b.n	87f8 <report_error>

000087fc <execute_firmware>:
    87fc:	e90d 4008 	stmdb	sp, {r3, lr}
    8800:	e90d 4008 	stmdb	sp, {r3, lr}
    8804:	f1ad 0508 	sub.w	r5, sp, #8
    8808:	f1ad 0508 	sub.w	r5, sp, #8
    880c:	46ad      	mov	sp, r5
    880e:	46ad      	mov	sp, r5
    8810:	f20f 0e14 	addw	lr, pc, #20
    8814:	f20f 0e10 	addw	lr, pc, #16
    8818:	f04e 0e01 	orr.w	lr, lr, #1
    881c:	f04e 0e01 	orr.w	lr, lr, #1
    8820:	f7ff bfec 	b.w	87fc <execute_firmware>
    8824:	f7ff bfea 	b.w	87fc <execute_firmware>

00008828 <verify_and_run_firmware>:
    8828:	e90d 4010 	stmdb	sp, {r4, lr}
    882c:	e90d 4010 	stmdb	sp, {r4, lr}
    8830:	f1ad 0508 	sub.w	r5, sp, #8
    8834:	f1ad 0508 	sub.w	r5, sp, #8
    8838:	46ad      	mov	sp, r5
    883a:	46ad      	mov	sp, r5
    883c:	4614      	mov	r4, r2
    883e:	4614      	mov	r4, r2
    8840:	f1ad 0520 	sub.w	r5, sp, #32
    8844:	f1ad 0520 	sub.w	r5, sp, #32
    8848:	46ad      	mov	sp, r5
    884a:	46ad      	mov	sp, r5
    884c:	466a      	mov	r2, sp
    884e:	466a      	mov	r2, sp
    8850:	f20f 0e14 	addw	lr, pc, #20
    8854:	f20f 0e10 	addw	lr, pc, #16
    8858:	f04e 0e01 	orr.w	lr, lr, #1
    885c:	f04e 0e01 	orr.w	lr, lr, #1
    8860:	f7ff bbce 	b.w	8000 <sha256>
    8864:	f7ff bbcc 	b.w	8000 <sha256>
    8868:	1e62      	subs	r2, r4, #1
    886a:	1e62      	subs	r2, r4, #1
    886c:	f10d 33ff 	add.w	r3, sp, #4294967295	; 0xffffffff
    8870:	f10d 33ff 	add.w	r3, sp, #4294967295	; 0xffffffff
    8874:	f10d 041f 	add.w	r4, sp, #31
    8878:	f10d 041f 	add.w	r4, sp, #31
    887c:	e004      	b.n	8888 <verify_and_run_firmware+0x60>
    887e:	e003      	b.n	8888 <verify_and_run_firmware+0x60>
    8880:	42a3      	cmp	r3, r4
    8882:	42a3      	cmp	r3, r4
    8884:	d020      	beq.n	88c8 <verify_and_run_firmware+0xa0>
    8886:	d01f      	beq.n	88c8 <verify_and_run_firmware+0xa0>
    8888:	7858      	ldrb	r0, [r3, #1]
    888a:	7858      	ldrb	r0, [r3, #1]
    888c:	f103 0501 	add.w	r5, r3, #1
    8890:	f103 0501 	add.w	r5, r3, #1
    8894:	462b      	mov	r3, r5
    8896:	462b      	mov	r3, r5
    8898:	7851      	ldrb	r1, [r2, #1]
    889a:	7851      	ldrb	r1, [r2, #1]
    889c:	f102 0501 	add.w	r5, r2, #1
    88a0:	f102 0501 	add.w	r5, r2, #1
    88a4:	462a      	mov	r2, r5
    88a6:	462a      	mov	r2, r5
    88a8:	4288      	cmp	r0, r1
    88aa:	4288      	cmp	r0, r1
    88ac:	d0e8      	beq.n	8880 <verify_and_run_firmware+0x58>
    88ae:	d0e7      	beq.n	8880 <verify_and_run_firmware+0x58>
    88b0:	f20f 0e14 	addw	lr, pc, #20
    88b4:	f20f 0e10 	addw	lr, pc, #16
    88b8:	f04e 0e01 	orr.w	lr, lr, #1
    88bc:	f04e 0e01 	orr.w	lr, lr, #1
    88c0:	f7ff bf9a 	b.w	87f8 <report_error>
    88c4:	f7ff bf98 	b.w	87f8 <report_error>
    88c8:	f20f 0e14 	addw	lr, pc, #20
    88cc:	f20f 0e10 	addw	lr, pc, #16
    88d0:	f04e 0e01 	orr.w	lr, lr, #1
    88d4:	f04e 0e01 	orr.w	lr, lr, #1
    88d8:	f7ff bf90 	b.w	87fc <execute_firmware>
    88dc:	f7ff bf8e 	b.w	87fc <execute_firmware>
    88e0:	6a09e667 	.word	0x6a09e667
    88e4:	bb67ae85 	.word	0xbb67ae85
    88e8:	3c6ef372 	.word	0x3c6ef372
    88ec:	a54ff53a 	.word	0xa54ff53a
    88f0:	510e527f 	.word	0x510e527f
    88f4:	9b05688c 	.word	0x9b05688c
    88f8:	1f83d9ab 	.word	0x1f83d9ab
    88fc:	5be0cd19 	.word	0x5be0cd19

00008900 <constants>:
    8900:	428a2f98 71374491 b5c0fbcf e9b5dba5     ./.B.D7q........
    8910:	3956c25b 59f111f1 923f82a4 ab1c5ed5     [.V9...Y..?..^..
    8920:	d807aa98 12835b01 243185be 550c7dc3     .....[....1$.}.U
    8930:	72be5d74 80deb1fe 9bdc06a7 c19bf174     t].r........t...
    8940:	e49b69c1 efbe4786 0fc19dc6 240ca1cc     .i...G.........$
    8950:	2de92c6f 4a7484aa 5cb0a9dc 76f988da     o,.-..tJ...\...v
    8960:	983e5152 a831c66d b00327c8 bf597fc7     RQ>.m.1..'....Y.
    8970:	c6e00bf3 d5a79147 06ca6351 14292967     ....G...Qc..g)).
    8980:	27b70a85 2e1b2138 4d2c6dfc 53380d13     ...'8!...m,M..8S
    8990:	650a7354 766a0abb 81c2c92e 92722c85     Ts.e..jv.....,r.
    89a0:	a2bfe8a1 a81a664b c24b8b70 c76c51a3     ....Kf..p.K..Ql.
    89b0:	d192e819 d6990624 f40e3585 106aa070     ....$....5..p.j.
    89c0:	19a4c116 1e376c08 2748774c 34b0bcb5     .....l7.LwH'...4
    89d0:	391c0cb3 4ed8aa4a 5b9cca4f 682e6ff3     ...9J..NO..[.o.h
    89e0:	748f82ee 78a5636f 84c87814 8cc70208     ...toc.x.x......
    89f0:	90befffa a4506ceb bef9a3f7 c67178f2     .....lP......xq.
